Certificate:
    Data:
        Version: 3 (0x2)
        Serial Number: 1 (0x1)
        Signature Algorithm: sha256WithRSAEncryption
        Issuer: O=Cockroach, CN=localhost:443:0
        Validity
            Not Before: Jun 14 06:28:14 2023 GMT
            Not After : Jun 13 06:28:14 2024 GMT
        Subject: O=Cockroach
        Subject Public Key Info:
            Public Key Algorithm: rsaEncryption
                RSA Public-Key: (2048 bit)
                Modulus:
                    00:bf:8a:1b:73:67:7d:e9:d1:b5:25:55:ab:92:28:
                    09:14:57:26:20:87:1d:cc:58:b1:dc:17:fe:fa:88:
                    d4:7c:73:16:1a:af:35:d0:af:87:41:eb:36:0f:60:
                    48:ec:71:16:e4:67:72:83:6b:df:7c:ec:0f:00:dc:
                    e1:cd:82:fd:de:17:6c:a8:25:33:cc:4f:df:fc:0d:
                    47:a0:b3:85:36:a8:8a:ac:a5:65:ff:01:03:c0:62:
                    aa:d5:bf:70:17:87:d4:b8:f3:16:d6:e4:36:6d:f9:
                    b1:aa:0a:c4:41:59:57:1f:a5:1a:11:a4:79:16:b7:
                    0b:36:a5:e5:93:0e:d5:3c:e3:44:22:78:99:c1:c7:
                    f2:4e:f9:09:7b:80:d5:90:48:7b:ef:a1:14:ea:5e:
                    32:8f:aa:6d:b3:2d:69:d1:51:00:22:60:ce:72:1b:
                    c0:9a:9d:a1:8b:eb:79:94:0b:77:e3:88:cb:f0:f7:
                    68:b6:63:2d:9e:47:7a:92:04:cc:a9:a4:36:5f:e2:
                    a6:02:9b:59:22:b3:28:47:fa:2f:38:b4:51:be:ec:
                    b2:8a:e2:f7:67:ce:47:b3:8d:05:0b:ce:2a:0a:c0:
                    0a:e9:0b:8d:09:11:3f:c6:b5:43:f2:14:ea:4a:42:
                    cf:fd:2f:6c:51:fa:02:3f:69:bd:04:ce:f8:e6:db:
                    de:c7
                Exponent: 65537 (0x10001)
        X509v3 extensions:
            X509v3 Key Usage: critical
                Digital Signature, Key Encipherment
            X509v3 Extended Key Usage: 
                TLS Web Server Authentication, TLS Web Client Authentication
            X509v3 Subject Alternative Name: critical
                IP Address:172.22.0.2
    Signature Algorithm: sha256WithRSAEncryption
         80:23:c6:4d:60:52:4b:8e:b9:42:02:a4:25:9b:b3:02:90:6e:
         43:bc:ce:61:78:50:b8:41:c4:aa:c5:8d:8f:7e:7a:59:1b:ac:
         f8:3a:f5:75:06:55:37:c8:2c:62:49:2a:cf:6d:62:b6:50:a7:
         26:4e:a3:16:ef:5e:37:86:02:0f:9b:46:ac:e1:b3:ba:c9:37:
         dd:c0:9c:bf:1b:9d:41:6d:25:b2:b0:d9:3f:99:12:74:44:ef:
         74:74:a9:ae:56:88:55:4c:38:f7:c3:92:c2:05:d8:44:57:8d:
         29:cf:53:b7:55:c4:cb:a9:cb:99:a3:34:ad:a7:4d:b1:eb:5a:
         88:63:c9:bf:63:22:58:26:08:c9:92:92:9f:1a:0f:46:d6:2d:
         d2:fd:66:84:76:2e:24:41:89:05:f7:bd:4b:83:5d:8e:c8:bf:
         22:93:09:1a:1f:5a:3f:4f:a0:26:76:19:87:c7:9f:71:68:82:
         6f:b9:47:ee:96:a2:b0:65:85:25:56:4d:a2:57:67:57:06:22:
         c2:4b:7f:6e:42:d5:57:9b:5e:97:cc:d5:b7:44:e4:26:d3:4b:
         e0:08:cb:69:2d:28:b5:c0:e9:8c:a3:83:aa:fa:37:99:7d:a5:
         12:ee:e2:92:88:01:66:83:24:b4:e6:d4:d2:fc:e5:52:b2:75:
         94:0b:0b:81
-----BEGIN CERTIFICATE-----
MIIDAjCCAeqgAwIBAgIBATANBgkqhkiG9w0BAQsFADAuMRIwEAYDVQQKDAlDb2Nr
cm9hY2gxGDAWBgNVBAMMD2xvY2FsaG9zdDo0NDM6MDAeFw0yMzA2MTQwNjI4MTRa
Fw0yNDA2MTMwNjI4MTRaMBQxEjAQBgNVBAoMCUNvY2tyb2FjaDCCASIwDQYJKoZI
hvcNAQEBBQADggEPADCCAQoCggEBAL+KG3NnfenRtSVVq5IoCRRXJiCHHcxYsdwX
/vqI1HxzFhqvNdCvh0HrNg9gSOxxFuRncoNr33zsDwDc4c2C/d4XbKglM8xP3/wN
R6CzhTaoiqylZf8BA8BiqtW/cBeH1LjzFtbkNm35saoKxEFZVx+lGhGkeRa3Czal
5ZMO1TzjRCJ4mcHH8k75CXuA1ZBIe++hFOpeMo+qbbMtadFRACJgznIbwJqdoYvr
eZQLd+OIy/D3aLZjLZ5HepIEzKmkNl/ipgKbWSKzKEf6Lzi0Ub7ssori92fOR7ON
BQvOKgrACukLjQkRP8a1Q/IU6kpCz/0vbFH6Aj9pvQTO+Obb3scCAwEAAaNFMEMw
DgYDVR0PAQH/BAQDAgWgMB0GA1UdJQQWMBQGCCsGAQUFBwMBBggrBgEFBQcDAjAS
BgNVHREBAf8ECDAGhwSsFgACMA0GCSqGSIb3DQEBCwUAA4IBAQCAI8ZNYFJLjrlC
AqQlm7MCkG5DvM5heFC4QcSqxY2PfnpZG6z4OvV1BlU3yCxiSSrPbWK2UKcmTqMW
7143hgIPm0as4bO6yTfdwJy/G51BbSWysNk/mRJ0RO90dKmuVohVTDj3w5LCBdhE
V40pz1O3VcTLqcuZozStp02x61qIY8m/YyJYJgjJkpKfGg9G1i3S/WaEdi4kQYkF
971Lg12OyL8ikwkaH1o/T6AmdhmHx59xaIJvuUfulqKwZYUlVk2iV2dXBiLCS39u
QtVXm16XzNW3ROQm00vgCMtpLSi1wOmMo4Oq+jeZfaUS7uKSiAFmgyS05tTS/OVS
snWUCwuB
-----END CERTIFICATE-----
